(dp1
S'output'
p2
S"<type 'exceptions.NameError'> name 'friends' is not defined"
p3
sS'layer'
p4
S'C:\\Users\\Jordan\\Desktop\\CompSci\\web2py\\applications\\socialapp\\views\\default/profile.html'
p5
sS'code'
p6
S'response.write(\'<!--[if HTML5]><![endif]-->\\r\\n<!DOCTYPE html>\\r\\n<!-- paulirish.com/2008/conditional-stylesheets-vs-css-hacks-answer-neither/ -->\\r\\n<!--[if lt IE 7]><html class="ie ie6 ie-lte9 ie-lte8 ie-lte7 no-js" lang="\', escape=False)\nresponse.write(T.accepted_language or \'en\')\nresponse.write(\'"> <![endif]-->\\r\\n<!--[if IE 7]><html class="ie ie7 ie-lte9 ie-lte8 ie-lte7 no-js" lang="\', escape=False)\nresponse.write(T.accepted_language or \'en\')\nresponse.write(\'"> <![endif]-->\\r\\n<!--[if IE 8]><html class="ie ie8 ie-lte9 ie-lte8 no-js" lang="\', escape=False)\nresponse.write(T.accepted_language or \'en\')\nresponse.write(\'"> <![endif]-->\\r\\n<!--[if IE 9]><html class="ie9 ie-lte9 no-js" lang="\', escape=False)\nresponse.write(T.accepted_language or \'en\')\nresponse.write(\'"> <![endif]-->\\r\\n<!--[if (gt IE 9)|!(IE)]><!--> <html class="no-js" lang="\', escape=False)\nresponse.write(T.accepted_language or \'en\')\nresponse.write(\'"> <!--<![endif]-->\\r\\n<head>\\r\\n<title>\', escape=False)\nresponse.write(response.title or request.application)\nresponse.write(\'</title>\\r\\n  <!--[if !HTML5]>\\r\\n      <meta http-equiv="X-UA-Compatible" content="IE=edge\', escape=False)\nresponse.write(not request.is_local and \',chrome=1\' or \'\')\nresponse.write(\'">\\r\\n  <![endif]-->\\r\\n  <!-- www.phpied.com/conditional-comments-block-downloads/ -->\\r\\n  <!-- Always force latest IE rendering engine\\r\\n       (even in intranet) & Chrome Frame\\r\\n       Remove this if you use the .htaccess -->\\r\\n\\t   \\r\\n  <meta charset="utf-8" />\\r\\n\\r\\n  <!-- http://dev.w3.org/html5/markup/meta.name.html -->\\r\\n  <meta name="application-name" content="\', escape=False)\nresponse.write(request.application)\nresponse.write(\'" />\\r\\n\\r\\n  <!-- Speaking of Google, don\\\'t forget to set your site up:\\r\\n       http://google.com/webmasters -->\\r\\n  <meta name="google-site-verification" content="" />\\r\\n\\r\\n  <!--  Mobile Viewport Fix\\r\\n        j.mp/mobileviewport & davidbcalhoun.com/2010/viewport-metatag\\r\\n        device-width: Occupy full width of the screen in its current orientation\\r\\n        initial-scale = 1.0 retains dimensions instead of zooming out if page height > device height\\r\\n        user-scalable = yes allows the user to zoom in -->\\r\\n  <meta name="viewport" content="width=device-width, initial-scale=1.0" />\\r\\n\\r\\n  <link rel="shortcut icon" href="\', escape=False)\nresponse.write(URL(\'static\',\'images/favicon.ico\'))\nresponse.write(\'" type="image/x-icon">\\r\\n  <link rel="apple-touch-icon" href="\', escape=False)\nresponse.write(URL(\'static\',\'images/favicon.png\'))\nresponse.write(\'">\\r\\n\\r\\n  <!-- All JavaScript at the bottom, except for Modernizr which enables\\r\\n       HTML5 elements & feature detects -->\\r\\n  <script src="\', escape=False)\nresponse.write(URL(\'static\',\'js/modernizr.custom.js\'))\nresponse.write(\'"></script>\\r\\n\\r\\n  <!-- include stylesheets -->\\r\\n  \', escape=False)\nresponse.files.insert(0,URL(\'static\',\'css/web2py.css\'))\nresponse.files.insert(1,URL(\'static\',\'css/bootstrap.min.css\'))\nresponse.files.insert(2,URL(\'static\',\'css/bootstrap-responsive.min.css\'))\nresponse.files.insert(3,URL(\'static\',\'css/web2py_bootstrap.css\'))\nresponse.write(\'\\r\\n\\r\\n  \', escape=False)\nresponse.write(\'<script type="text/javascript"><!--\\r\\n    // These variables are used by the web2py_ajax_init function in web2py_ajax.js (which is loaded below).\\r\\n    var w2p_ajax_confirm_message = "\', escape=False)\nresponse.write(T(\'Are you sure you want to delete this object?\'))\nresponse.write(\'";\\r\\n    var w2p_ajax_disable_with_message = "\', escape=False)\nresponse.write(T(\'Working...\'))\nresponse.write(\'";\\r\\n    var w2p_ajax_date_format = "\', escape=False)\nresponse.write(T(\'%Y-%m-%d\'))\nresponse.write(\'";\\r\\n    var w2p_ajax_datetime_format = "\', escape=False)\nresponse.write(T(\'%Y-%m-%d %H:%M:%S\'))\nresponse.write(\'";\\r\\n    var ajax_error_500 = \\\'\', escape=False)\nresponse.write(T.M(\'An error occured, please [[reload %s]] the page\') % URL(args=request.args, vars=request.get_vars))\nresponse.write("\'\\r\\n    //--></script>\\r\\n", escape=False)\nresponse.files.insert(0,URL(\'static\',\'js/jquery.js\'))\nresponse.files.insert(1,URL(\'static\',\'css/calendar.css\'))\nresponse.files.insert(2,URL(\'static\',\'js/calendar.js\'))\nresponse.files.insert(3,URL(\'static\',\'js/web2py.js\'))\nresponse.include_meta()\nresponse.include_files()\nresponse.write(\'\\r\\n\', escape=False)\nresponse.write(\'\\r\\n\\r\\n  \', escape=False)\n# using sidebars need to know what sidebar you want to use\nleft_sidebar_enabled = globals().get(\'left_sidebar_enabled\',False)\nright_sidebar_enabled = globals().get(\'right_sidebar_enabled\',False)\nmiddle_columns = {0:\'span12\',1:\'span9\',2:\'span6\'}[\n(left_sidebar_enabled and 1 or 0)+(right_sidebar_enabled and 1 or 0)]\nresponse.write(\'\\r\\n\\r\\n  <!-- uncomment here to load jquery-ui\\r\\n       <link rel="stylesheet" href="http://ajax.googleapis.com/ajax/libs/jqueryui/1.10.3/themes/ui-lightness/jquery-ui.css" type="text/css" media="all" />\\r\\n       <script src="http://ajax.googleapis.com/ajax/libs/jqueryui/1.10.3/jquery-ui.min.js" type="text/javascript"></script>\\r\\n       uncomment to load jquery-ui //-->\\r\\n  <noscript><link href="\', escape=False)\nresponse.write(URL(\'static\', \'css/web2py_bootstrap_nojs.css\'))\nresponse.write(\'" rel="stylesheet" type="text/css" /></noscript>\\r\\n  \', escape=False)\nresponse.write(\'\\r\\n</head>\\r\\n\\r\\n<body>\\r\\n  <!-- Navbar ================================================== -->\\r\\n  <div class="navbar navbar-inverse">\\r\\n    <div class="flash">\', escape=False)\nresponse.write(response.flash or \'\')\nresponse.write(\'</div>\\r\\n    <div class="navbar-inner">\\r\\n      <div class="container">\\r\\n        \', escape=False)\nis_mobile=request.user_agent().is_mobile\nresponse.write(\'\\r\\n        <!-- the next tag is necessary for bootstrap menus, do not remove -->\\r\\n        <button type="button" class="btn btn-navbar" data-toggle="collapse" data-target=".nav-collapse" style="\', escape=False)\nresponse.write(\'display:none;\' if not is_mobile else \'\')\nresponse.write(\'">\\r\\n          <span class="icon-bar"></span>\\r\\n          <span class="icon-bar"></span>\\r\\n          <span class="icon-bar"></span>\\r\\n        </button>\\r\\n        \', escape=False)\nresponse.write(response.logo or \'\')\nresponse.write(\'\\r\\n        <ul id="navbar" class="nav pull-right">\', escape=False)\nresponse.write(\'auth\' in globals() and auth.navbar(mode="dropdown") or \'\')\nresponse.write(\'</ul>\\r\\n        <div class="\', escape=False)\nresponse.write(\'nav-collapse\' if is_mobile else \'nav\')\nresponse.write(\'">\\r\\n          \', escape=False)\nif response.menu:\n    response.write(\'\\r\\n          \', escape=False)\n    response.write(MENU(response.menu, _class=\'mobile-menu nav\' if is_mobile else \'nav\',mobile=is_mobile,li_class=\'dropdown\',ul_class=\'dropdown-menu\'))\n    response.write(\'\\r\\n          \', escape=False)\n    pass\nresponse.write(\'\\r\\n        </div><!--/.nav-collapse -->\\r\\n      </div>\\r\\n    </div>\\r\\n  </div><!--/top navbar -->\\r\\n\\r\\n  <div class="container">\\r\\n    <!-- Masthead ================================================== -->\\r\\n    <header class="mastheader row" id="header">\\r\\n      \', escape=False)\nif response.title:\n    response.write(\'\\r\\n        <div class="span12">\\r\\n            <div class="page-header">\\r\\n                <h1>\\r\\n                    \', escape=False)\n    response.write(response.title)\n    response.write(\'\\r\\n                    <small>\', escape=False)\n    response.write(response.subtitle or \'\')\n    response.write(\'</small>\\r\\n                </h1>\\r\\n            </div>\\r\\n        </div>\\r\\n\\t\', escape=False)\n    pass\nresponse.write(\'\\r\\n    </header>\\r\\n\\r\\n    <section id="main" class="main row">\\r\\n        \', escape=False)\nif left_sidebar_enabled:\n    response.write(\'\\r\\n        <div class="span3 left-sidebar">\\r\\n            \', escape=False)\n    response.write(\'\\r\\n            <h3>Left Sidebar</h3>\\r\\n            <p></p>\\r\\n            \', escape=False)\n    response.write(\'\\r\\n        </div>\\r\\n        \', escape=False)\n    pass\nresponse.write(\'\\r\\n\\r\\n        <div class="\', escape=False)\nresponse.write(middle_columns)\nresponse.write(\'">\\r\\n            \', escape=False)\nresponse.write(\'\\r\\n            \', escape=False)\nresponse.write(\'\\r\\n<style>\\r\\n    .editables{\\r\\n        display:none;\\r\\n    }\\r\\n    .status.hover .editables{\\r\\n        display:inline;\\r\\n    }\\r\\n</style>\\r\\n<script type="javascript">\\r\\n    $(\\\'.status\\\').hover(function(){\\r\\n        console.log("hi there");\\r\\n    });\\r\\n</script>\\r\\n<! Name should change depending on who the user is >\\r\\n<h1>Username\\\'s/Your Profile Page </h1>\\r\\n\\r\\n<table>\\r\\n    <h2>Friends</h2>\\r\\n    \', escape=False)\nfor friend in friends:\n    response.write(\'\\r\\n    <div class="friend well">\\r\\n        <b>\', escape=False)\n    response.write(friend.first_name + " " + friend.last_name)\n    response.write(\'</b>\\r\\n    </div>\\r\\n    \', escape=False)\n    pass\nresponse.write("\\r\\n</table>\\r\\n\\r\\n<! Button shouldn\'t be visible if it\'s a different user>\\r\\n", escape=False)\nresponse.write(A(\'Publish new status\', _href=URL(\'new\'), _class="btn btn-primary", _type="button"))\nresponse.write(\'\\r\\n\\r\\n<table>\\r\\n    \', escape=False)\nfor status in statuses:\n    response.write(\'\\r\\n    <div class="status well">\\r\\n        <b>\', escape=False)\n    response.write(status.created_by.first_name + " " + status.created_by.last_name)\n    response.write(\'</b>\\r\\n        <p>\', escape=False)\n    response.write(status.body)\n    response.write(\'</p>\\r\\n        <div>\\r\\n            \', escape=False)\n    response.write(prettydate(status.created_on))\n    response.write(\'<span class="editables"> |\\r\\n            \', escape=False)\n    response.write(A(\'delete\', _href=URL("delete", args=status.id)))\n    response.write(\' |\\r\\n            \', escape=False)\n    response.write(A(\'edit\', _href=URL("edit", args=status.id)))\n    response.write(\'</span>\\r\\n        </div>\\r\\n    </div>\\r\\n    \', escape=False)\n    pass\nresponse.write(\'\\r\\n</table>\\r\\n\', escape=False)\nresponse.write(\'\\r\\n            \', escape=False)\nresponse.write(\'\\r\\n        </div>\\r\\n\\r\\n        \', escape=False)\nif right_sidebar_enabled:\n    response.write(\'\\r\\n        <div class="span3">\\r\\n            \', escape=False)\n    response.write(\'\\r\\n            <h3>Right Sidebar</h3>\\r\\n            <p></p>\\r\\n            \', escape=False)\n    response.write(\'\\r\\n        </div>\\r\\n        \', escape=False)\n    pass\nresponse.write(\'\\r\\n    </section><!--/main-->\\r\\n\\r\\n    <!-- Footer ================================================== -->\\r\\n    <div class="row">\\r\\n        <footer class="footer span12" id="footer">\\r\\n            <div class="footer-content">\\r\\n                \', escape=False)\nresponse.write(\' <!-- this is default footer -->\\r\\n                <div class="copyright pull-left">\', escape=False)\nresponse.write(T(\'Copyright\'))\nresponse.write(\' &#169; \', escape=False)\nresponse.write(request.now.year)\nresponse.write(\'</div>\\r\\n                <div id="poweredBy" class="pull-right">\\r\\n                </div>\\r\\n                \', escape=False)\nresponse.write(\'\\r\\n            </div>\\r\\n        </footer>\\r\\n    </div>\\r\\n\\r\\n  </div> <!-- /container -->\\r\\n\\r\\n  <!-- The javascript =============================================\\r\\n       (Placed at the end of the document so the pages load faster) -->\\r\\n  <script src="\', escape=False)\nresponse.write(URL(\'static\',\'js/bootstrap.min.js\'))\nresponse.write(\'"></script>\\r\\n  <script src="\', escape=False)\nresponse.write(URL(\'static\',\'js/web2py_bootstrap.js\'))\nresponse.write(\'"></script>\\r\\n  <!--[if lt IE 7 ]>\\r\\n      <script src="\', escape=False)\nresponse.write(URL(\'static\',\'js/dd_belatedpng.js\'))\nresponse.write(\'"></script>\\r\\n      <script> DD_belatedPNG.fix(\\\'img, .png_bg\\\'); //fix any <img> or .png_bg background-images </script>\\r\\n      <![endif]-->\\r\\n  \\r\\n  \', escape=False)\nif response.google_analytics_id:\n    response.write("\\r\\n  <!-- Google Analytics -->\\r\\n  <script>\\r\\n    (function(i,s,o,g,r,a,m){i[\'GoogleAnalyticsObject\']=r;i[r]=i[r]||function(){\\r\\n(i[r].q=i[r].q||[]).push(arguments)},i[r].l=1*new Date();a=s.createElement(o),\\r\\nm=s.getElementsByTagName(o)[0];a.async=1;a.src=g;m.parentNode.insertBefore(a,m)\\r\\n})(window,document,\'script\',\'//www.google-analytics.com/analytics.js\',\'ga\');\\r\\n    ga(\'create\', \'", escape=False)\n    response.write(response.google_analytics_id)\n    response.write("\', \'auto\');\\r\\n    ga(\'send\', \'pageview\');\\r\\n  </script>\\r\\n  <!-- End Google Analytics -->\\r\\n  ", escape=False)\n    pass\nresponse.write(\'\\r\\n  <script src="\', escape=False)\nresponse.write(URL(\'static\',\'js/share.js\',vars=dict(static=URL(\'static\',\'images\'))))\nresponse.write(\'"></script>\\r\\n</body>\\r\\n</html>\\r\\n\', escape=False)'
p7
sS'snapshot'
p8
(dp9
S'exception'
p10
(dp11
S'__hash__'
p12
S"<method-wrapper '__hash__' of exceptions.NameError object>"
p13
sS'__setattr__'
p14
S"<method-wrapper '__setattr__' of exceptions.NameError object>"
p15
sS'__reduce_ex__'
p16
S'<built-in method __reduce_ex__ of exceptions.NameError object>'
p17
sS'__getslice__'
p18
S"<method-wrapper '__getslice__' of exceptions.NameError object>"
p19
sS'__getitem__'
p20
S"<method-wrapper '__getitem__' of exceptions.NameError object>"
p21
sS'__setstate__'
p22
S'<built-in method __setstate__ of exceptions.NameError object>'
p23
sS'__reduce__'
p24
S'<built-in method __reduce__ of exceptions.NameError object>'
p25
sS'__str__'
p26
S"<method-wrapper '__str__' of exceptions.NameError object>"
p27
sS'__format__'
p28
S'<built-in method __format__ of exceptions.NameError object>'
p29
sS'__getattribute__'
p30
S"<method-wrapper '__getattribute__' of exceptions.NameError object>"
p31
sS'__class__'
p32
S"<type 'exceptions.NameError'>"
p33
sS'__unicode__'
p34
S'<built-in method __unicode__ of exceptions.NameError object>'
p35
sS'__delattr__'
p36
S"<method-wrapper '__delattr__' of exceptions.NameError object>"
p37
sS'__subclasshook__'
p38
S'<built-in method __subclasshook__ of type object>'
p39
sS'__repr__'
p40
S"<method-wrapper '__repr__' of exceptions.NameError object>"
p41
sS'args'
p42
S'("name \'friends\' is not defined",)'
p43
sS'__dict__'
p44
S'{}'
p45
sS'__sizeof__'
p46
S'<built-in method __sizeof__ of exceptions.NameError object>'
p47
sS'__doc__'
p48
S"'Name not found globally.'"
p49
sS'__init__'
p50
S"<method-wrapper '__init__' of exceptions.NameError object>"
p51
sS'__new__'
p52
S'<built-in method __new__ of type object>'
p53
ssS'evalue'
p54
S"name 'friends' is not defined"
p55
sS'request'
p56
cgluon.html
XML_unpickle
p57
(S'sg`\x00\x00<div><table><tr><td style="font-weight:bold;vertical-align:top;">ajax</td><td style="vertical-align:top;">:</td><td><div>False</div></td></tr><tr><td style="font-weight:bold;vertical-align:top;">application</td><td style="vertical-align:top;">:</td><td><div>socialapp</div></td></tr><tr><td style="font-weight:bold;vertical-align:top;">args</td><td style="vertical-align:top;">:</td><td><div><table></table></div></td></tr><tr><td style="font-weight:bold;vertical-align:top;">cid</td><td style="vertical-align:top;">:</td><td><div>None</div></td></tr><tr><td style="font-weight:bold;vertical-align:top;">client</td><td style="vertical-align:top;">:</td><td><div>127.0.0.1</div></td></tr><tr><td style="font-weight:bold;vertical-align:top;">controller</td><td style="vertical-align:top;">:</td><td><div>default</div></td></tr><tr><td style="font-weight:bold;vertical-align:top;">cookies</td><td style="vertical-align:top;">:</td><td><div><table><tr><td style="font-weight:bold;vertical-align:top;">session_id_admin</td><td style="vertical-align:top;">:</td><td><div>127.0.0.1-10a1060c-f21f-450e-a013-4cbeb8e55674<table><tr><td style="font-weight:bold;vertical-align:top;">comment</td><td style="vertical-align:top;">:</td><td><div></div></td></tr><tr><td style="font-weight:bold;vertical-align:top;">domain</td><td style="vertical-align:top;">:</td><td><div></div></td></tr><tr><td style="font-weight:bold;vertical-align:top;">expires</td><td style="vertical-align:top;">:</td><td><div></div></td></tr><tr><td style="font-weight:bold;vertical-align:top;">httponly</td><td style="vertical-align:top;">:</td><td><div></div></td></tr><tr><td style="font-weight:bold;vertical-align:top;">max-age</td><td style="vertical-align:top;">:</td><td><div></div></td></tr><tr><td style="font-weight:bold;vertical-align:top;">path</td><td style="vertical-align:top;">:</td><td><div></div></td></tr><tr><td style="font-weight:bold;vertical-align:top;">secure</td><td style="vertical-align:top;">:</td><td><div></div></td></tr><tr><td style="font-weight:bold;vertical-align:top;">version</td><td style="vertical-align:top;">:</td><td><div></div></td></tr></table></div></td></tr><tr><td style="font-weight:bold;vertical-align:top;">session_id_socialapp</td><td style="vertical-align:top;">:</td><td><div>127.0.0.1-1b537698-8cca-44df-92d1-47392b69d9cd<table><tr><td style="font-weight:bold;vertical-align:top;">comment</td><td style="vertical-align:top;">:</td><td><div></div></td></tr><tr><td style="font-weight:bold;vertical-align:top;">domain</td><td style="vertical-align:top;">:</td><td><div></div></td></tr><tr><td style="font-weight:bold;vertical-align:top;">expires</td><td style="vertical-align:top;">:</td><td><div></div></td></tr><tr><td style="font-weight:bold;vertical-align:top;">httponly</td><td style="vertical-align:top;">:</td><td><div></div></td></tr><tr><td style="font-weight:bold;vertical-align:top;">max-age</td><td style="vertical-align:top;">:</td><td><div></div></td></tr><tr><td style="font-weight:bold;vertical-align:top;">path</td><td style="vertical-align:top;">:</td><td><div></div></td></tr><tr><td style="font-weight:bold;vertical-align:top;">secure</td><td style="vertical-align:top;">:</td><td><div></div></td></tr><tr><td style="font-weight:bold;vertical-align:top;">version</td><td style="vertical-align:top;">:</td><td><div></div></td></tr></table></div></td></tr><tr><td style="font-weight:bold;vertical-align:top;">session_id_welcome</td><td style="vertical-align:top;">:</td><td><div>127.0.0.1-f4b75421-f259-465c-8b1a-9380dd3c6421<table><tr><td style="font-weight:bold;vertical-align:top;">comment</td><td style="vertical-align:top;">:</td><td><div></div></td></tr><tr><td style="font-weight:bold;vertical-align:top;">domain</td><td style="vertical-align:top;">:</td><td><div></div></td></tr><tr><td style="font-weight:bold;vertical-align:top;">expires</td><td style="vertical-align:top;">:</td><td><div></div></td></tr><tr><td style="font-weight:bold;vertical-align:top;">httponly</td><td style="vertical-align:top;">:</td><td><div></div></td></tr><tr><td style="font-weight:bold;vertical-align:top;">max-age</td><td style="vertical-align:top;">:</td><td><div></div></td></tr><tr><td style="font-weight:bold;vertical-align:top;">path</td><td style="vertical-align:top;">:</td><td><div></div></td></tr><tr><td style="font-weight:bold;vertical-align:top;">secure</td><td style="vertical-align:top;">:</td><td><div></div></td></tr><tr><td style="font-weight:bold;vertical-align:top;">version</td><td style="vertical-align:top;">:</td><td><div></div></td></tr></table></div></td></tr></table></div></td></tr><tr><td style="font-weight:bold;vertical-align:top;">env</td><td style="vertical-align:top;">:</td><td><div><table><tr><td style="font-weight:bold;vertical-align:top;">HTTP_ACCEPT</td><td style="vertical-align:top;">:</td><td><div>text/html,application/xhtml+xml,application/xml;q=0.9,image/webp,*/*;q=0.8</div></td></tr><tr><td style="font-weight:bold;vertical-align:top;">HTTP_ACCEPT_ENCODING</td><td style="vertical-align:top;">:</td><td><div>gzip,deflate,sdch</div></td></tr><tr><td style="font-weight:bold;vertical-align:top;">HTTP_ACCEPT_LANGUAGE</td><td style="vertical-align:top;">:</td><td><div>en-US,en;q=0.8</div></td></tr><tr><td style="font-weight:bold;vertical-align:top;">HTTP_CACHE_CONTROL</td><td style="vertical-align:top;">:</td><td><div>max-age=0</div></td></tr><tr><td style="font-weight:bold;vertical-align:top;">HTTP_CONNECTION</td><td style="vertical-align:top;">:</td><td><div>keep-alive</div></td></tr><tr><td style="font-weight:bold;vertical-align:top;">HTTP_COOKIE</td><td style="vertical-align:top;">:</td><td><div>session_id_welcome=127.0.0.1-f4b75421-f259-465c-8b1a-9380dd3c6421; session_id_socialapp=127.0.0.1-1b537698-8cca-44df-92d1-47392b69d9cd; session_id_admin=127.0.0.1-10a1060c-f21f-450e-a013-4cbeb8e55674</div></td></tr><tr><td style="font-weight:bold;vertical-align:top;">HTTP_HOST</td><td style="vertical-align:top;">:</td><td><div>127.0.0.1:8000</div></td></tr><tr><td style="font-weight:bold;vertical-align:top;">HTTP_USER_AGENT</td><td style="vertical-align:top;">:</td><td><div>Mozilla/5.0 (Windows NT 6.1; WOW64) AppleWebKit/537.36 (KHTML, like Gecko) Chrome/38.0.2125.111 Safari/537.36</div></td></tr><tr><td style="font-weight:bold;vertical-align:top;">PATH_INFO</td><td style="vertical-align:top;">:</td><td><div>/socialapp/default/profile</div></td></tr><tr><td style="font-weight:bold;vertical-align:top;">QUERY_STRING</td><td style="vertical-align:top;">:</td><td><div></div></td></tr><tr><td style="font-weight:bold;vertical-align:top;">REMOTE_ADDR</td><td style="vertical-align:top;">:</td><td><div>127.0.0.1</div></td></tr><tr><td style="font-weight:bold;vertical-align:top;">REMOTE_PORT</td><td style="vertical-align:top;">:</td><td><div>51586</div></td></tr><tr><td style="font-weight:bold;vertical-align:top;">REQUEST_METHOD</td><td style="vertical-align:top;">:</td><td><div>GET</div></td></tr><tr><td style="font-weight:bold;vertical-align:top;">SCRIPT_NAME</td><td style="vertical-align:top;">:</td><td><div></div></td></tr><tr><td style="font-weight:bold;vertical-align:top;">SERVER_NAME</td><td style="vertical-align:top;">:</td><td><div>Jordan-PC</div></td></tr><tr><td style="font-weight:bold;vertical-align:top;">SERVER_PORT</td><td style="vertical-align:top;">:</td><td><div>8000</div></td></tr><tr><td style="font-weight:bold;vertical-align:top;">SERVER_PROTOCOL</td><td style="vertical-align:top;">:</td><td><div>HTTP/1.1</div></td></tr><tr><td style="font-weight:bold;vertical-align:top;">SERVER_SOFTWARE</td><td style="vertical-align:top;">:</td><td><div>Rocket 1.2.6</div></td></tr><tr><td style="font-weight:bold;vertical-align:top;">app_folders</td><td style="vertical-align:top;">:</td><td><div>set([&#x27;C:\\\\Users\\\\Jordan\\\\Desktop\\\\CompSci\\\\web2py\\\\applications\\\\socialapp\\\\&#x27;, &#x27;C:\\\\Users\\\\Jordan\\\\Desktop\\\\CompSci\\\\web2py\\\\applications\\\\examples\\\\&#x27;, &#x27;C:\\\\Users\\\\Jordan\\\\Desktop\\\\CompSci\\\\web2py\\\\applications\\\\admin\\\\&#x27;, &#x27;C:\\\\Users\\\\Jordan\\\\Desktop\\\\CompSci\\\\web2py\\\\applications\\\\welcome\\\\&#x27;])</div></td></tr><tr><td style="font-weight:bold;vertical-align:top;">applications_parent</td><td style="vertical-align:top;">:</td><td><div>C:\\Users\\Jordan\\Desktop\\CompSci\\web2py</div></td></tr><tr><td style="font-weight:bold;vertical-align:top;">cmd_args</td><td style="vertical-align:top;">:</td><td><div><table></table></div></td></tr><tr><td style="font-weight:bold;vertical-align:top;">cmd_options</td><td style="vertical-align:top;">:</td><td><div>&lt;Values at 0x33b2300: {&#x27;verbose&#x27;: False, &#x27;ip&#x27;: &#x27;127.0.0.1&#x27;, &#x27;debuglevel&#x27;: 30, &#x27;with_scheduler&#x27;: False, &#x27;ips&#x27;: [&#x27;169.233.221.241&#x27;, &#x27;fe80::9d95:d390:5d8d:b072%23&#x27;, &#x27;fe80::e4ca:8b18:1198:1e7b%11&#x27;, &#x27;2002:a9e9:ddf1::a9e9:ddf1&#x27;, &#x27;fe80::200:5efe:169.233.221.241%26&#x27;, &#x27;192.168.56.1&#x27;], &#x27;shutdown_timeout&#x27;: 5, &#x27;taskbar&#x27;: False, &#x27;with_coverage&#x27;: False, &#x27;scheduler_groups&#x27;: None, &#x27;port&#x27;: 8000, &#x27;maxthreads&#x27;: None, &#x27;softcron&#x27;: False, &#x27;server_name&#x27;: &#x27;Jordan-PC&#x27;, &#x27;bpython&#x27;: False, &#x27;nogui&#x27;: False, &#x27;pid_filename&#x27;: &#x27;httpserver.pid&#x27;, &#x27;extcron&#x27;: False, &#x27;runcron&#x27;: False, &#x27;run_system_tests&#x27;: False, &#x27;test&#x27;: None, &#x27;folder&#x27;: &#x27;C:\\\\Users\\\\Jordan\\\\Desktop\\\\CompSci\\\\web2py&#x27;, &#x27;config&#x27;: &#x27;&#x27;, &#x27;minthreads&#x27;: None, &#x27;shell&#x27;: None, &#x27;run&#x27;: &#x27;&#x27;, &#x27;log_filename&#x27;: &#x27;httpserver.log&#x27;, &#x27;profiler_dir&#x27;: None, &#x27;args&#x27;: [&#x27;&#x27;], &#x27;socket_timeout&#x27;: 5, &#x27;ssl_ca_certificate&#x27;: None, &#x27;scheduler&#x27;: None, &#x27;interfaces&#x27;: None, &#x27;ssl_private_key&#x27;: &#x27;&#x27;, &#x27;gae&#x27;: None, &#x27;password&#x27;: &#x27;&lt;ask&gt;&#x27;, &#x27;request_queue_size&#x27;: 5, &#x27;ssl_certificate&#x27;: &#x27;&#x27;, &#x27;cronjob&#x27;: False, &#x27;numthreads&#x27;: None, &#x27;quiet&#x27;: False, &#x27;import_models&#x27;: False, &#x27;timeout&#x27;: 10, &#x27;plain&#x27;: False, &#x27;nobanner&#x27;: False}&gt;</div></td></tr><tr><td style="font-weight:bold;vertical-align:top;">db_sessions</td><td style="vertical-align:top;">:</td><td><div>set([])</div></td></tr><tr><td style="font-weight:bold;vertical-align:top;">debugging</td><td style="vertical-align:top;">:</td><td><div>True</div></td></tr><tr><td style="font-weight:bold;vertical-align:top;">gluon_parent</td><td style="vertical-align:top;">:</td><td><div>C:\\Users\\Jordan\\Desktop\\CompSci\\web2py</div></td></tr><tr><td style="font-weight:bold;vertical-align:top;">http_accept</td><td style="vertical-align:top;">:</td><td><div>text/html,application/xhtml+xml,application/xml;q=0.9,image/webp,*/*;q=0.8</div></td></tr><tr><td style="font-weight:bold;vertical-align:top;">http_accept_encoding</td><td style="vertical-align:top;">:</td><td><div>gzip,deflate,sdch</div></td></tr><tr><td style="font-weight:bold;vertical-align:top;">http_accept_language</td><td style="vertical-align:top;">:</td><td><div>en-US,en;q=0.8</div></td></tr><tr><td style="font-weight:bold;vertical-align:top;">http_cache_control</td><td style="vertical-align:top;">:</td><td><div>max-age=0</div></td></tr><tr><td style="font-weight:bold;vertical-align:top;">http_connection</td><td style="vertical-align:top;">:</td><td><div>keep-alive</div></td></tr><tr><td style="font-weight:bold;vertical-align:top;">http_cookie</td><td style="vertical-align:top;">:</td><td><div>session_id_welcome=127.0.0.1-f4b75421-f259-465c-8b1a-9380dd3c6421; session_id_socialapp=127.0.0.1-1b537698-8cca-44df-92d1-47392b69d9cd; session_id_admin=127.0.0.1-10a1060c-f21f-450e-a013-4cbeb8e55674</div></td></tr><tr><td style="font-weight:bold;vertical-align:top;">http_host</td><td style="vertical-align:top;">:</td><td><div>127.0.0.1:8000</div></td></tr><tr><td style="font-weight:bold;vertical-align:top;">http_user_agent</td><td style="vertical-align:top;">:</td><td><div>Mozilla/5.0 (Windows NT 6.1; WOW64) AppleWebKit/537.36 (KHTML, like Gecko) Chrome/38.0.2125.111 Safari/537.36</div></td></tr><tr><td style="font-weight:bold;vertical-align:top;">is_jython</td><td style="vertical-align:top;">:</td><td><div>False</div></td></tr><tr><td style="font-weight:bold;vertical-align:top;">is_pypy</td><td style="vertical-align:top;">:</td><td><div>False</div></td></tr><tr><td style="font-weight:bold;vertical-align:top;">is_source</td><td style="vertical-align:top;">:</td><td><div>False</div></td></tr><tr><td style="font-weight:bold;vertical-align:top;">local_hosts</td><td style="vertical-align:top;">:</td><td><div><table><tr><td><div>169.233.221.241</div></td></tr><tr><td><div>fe80::9d95:d390:5d8d:b072%23</div></td></tr><tr><td><div>Jordan-PC</div></td></tr><tr><td><div>fe80::e4ca:8b18:1198:1e7b%11</div></td></tr><tr><td><div>::ffff:127.0.0.1</div></td></tr><tr><td><div>::1</div></td></tr><tr><td><div>2002:a9e9:ddf1::a9e9:ddf1</div></td></tr><tr><td><div>fe80::200:5efe:169.233.221.241%26</div></td></tr><tr><td><div>127.0.0.1</div></td></tr><tr><td><div>192.168.56.1</div></td></tr></table></div></td></tr><tr><td style="font-weight:bold;vertical-align:top;">path_info</td><td style="vertical-align:top;">:</td><td><div>/socialapp/default/profile</div></td></tr><tr><td style="font-weight:bold;vertical-align:top;">query_string</td><td style="vertical-align:top;">:</td><td><div></div></td></tr><tr><td style="font-weight:bold;vertical-align:top;">remote_addr</td><td style="vertical-align:top;">:</td><td><div>127.0.0.1</div></td></tr><tr><td style="font-weight:bold;vertical-align:top;">remote_port</td><td style="vertical-align:top;">:</td><td><div>51586</div></td></tr><tr><td style="font-weight:bold;vertical-align:top;">request_method</td><td style="vertical-align:top;">:</td><td><div>GET</div></td></tr><tr><td style="font-weight:bold;vertical-align:top;">request_uri</td><td style="vertical-align:top;">:</td><td><div>/socialapp/default/profile</div></td></tr><tr><td style="font-weight:bold;vertical-align:top;">script_name</td><td style="vertical-align:top;">:</td><td><div></div></td></tr><tr><td style="font-weight:bold;vertical-align:top;">server_name</td><td style="vertical-align:top;">:</td><td><div>Jordan-PC</div></td></tr><tr><td style="font-weight:bold;vertical-align:top;">server_port</td><td style="vertical-align:top;">:</td><td><div>8000</div></td></tr><tr><td style="font-weight:bold;vertical-align:top;">server_protocol</td><td style="vertical-align:top;">:</td><td><div>HTTP/1.1</div></td></tr><tr><td style="font-weight:bold;vertical-align:top;">server_software</td><td style="vertical-align:top;">:</td><td><div>Rocket 1.2.6</div></td></tr><tr><td style="font-weight:bold;vertical-align:top;">web2py_path</td><td style="vertical-align:top;">:</td><td><div>C:\\Users\\Jordan\\Desktop\\CompSci\\web2py</div></td></tr><tr><td style="font-weight:bold;vertical-align:top;">web2py_version</td><td style="vertical-align:top;">:</td><td><div>2.9.11-stable+timestamp.2014.09.15.23.35.11</div></td></tr><tr><td style="font-weight:bold;vertical-align:top;">wsgi.errors</td><td style="vertical-align:top;">:</td><td><div>&lt;open file &#x27;&lt;stderr&gt;&#x27;, mode &#x27;w&#x27; at 0x006160D0&gt;</div></td></tr><tr><td style="font-weight:bold;vertical-align:top;">wsgi.file_wrapper</td><td style="vertical-align:top;">:</td><td><div>&lt;class wsgiref.util.FileWrapper at 0x02492B90&gt;</div></td></tr><tr><td style="font-weight:bold;vertical-align:top;">wsgi.input</td><td style="vertical-align:top;">:</td><td><div>&lt;socket._fileobject object at 0x08056230&gt;</div></td></tr><tr><td style="font-weight:bold;vertical-align:top;">wsgi.multiprocess</td><td style="vertical-align:top;">:</td><td><div>False</div></td></tr><tr><td style="font-weight:bold;vertical-align:top;">wsgi.multithread</td><td style="vertical-align:top;">:</td><td><div>True</div></td></tr><tr><td style="font-weight:bold;vertical-align:top;">wsgi.run_once</td><td style="vertical-align:top;">:</td><td><div>False</div></td></tr><tr><td style="font-weight:bold;vertical-align:top;">wsgi.url_scheme</td><td style="vertical-align:top;">:</td><td><div>http</div></td></tr><tr><td style="font-weight:bold;vertical-align:top;">wsgi.version</td><td style="vertical-align:top;">:</td><td><div><table><tr><td><div>1</div></td></tr><tr><td><div>0</div></td></tr></table></div></td></tr><tr><td style="font-weight:bold;vertical-align:top;">wsgi_errors</td><td style="vertical-align:top;">:</td><td><div>&lt;open file &#x27;&lt;stderr&gt;&#x27;, mode &#x27;w&#x27; at 0x006160D0&gt;</div></td></tr><tr><td style="font-weight:bold;vertical-align:top;">wsgi_file_wrapper</td><td style="vertical-align:top;">:</td><td><div>&lt;class wsgiref.util.FileWrapper at 0x02492B90&gt;</div></td></tr><tr><td style="font-weight:bold;vertical-align:top;">wsgi_input</td><td style="vertical-align:top;">:</td><td><div>&lt;socket._fileobject object at 0x08056230&gt;</div></td></tr><tr><td style="font-weight:bold;vertical-align:top;">wsgi_multiprocess</td><td style="vertical-align:top;">:</td><td><div>False</div></td></tr><tr><td style="font-weight:bold;vertical-align:top;">wsgi_multithread</td><td style="vertical-align:top;">:</td><td><div>True</div></td></tr><tr><td style="font-weight:bold;vertical-align:top;">wsgi_run_once</td><td style="vertical-align:top;">:</td><td><div>False</div></td></tr><tr><td style="font-weight:bold;vertical-align:top;">wsgi_url_scheme</td><td style="vertical-align:top;">:</td><td><div>http</div></td></tr><tr><td style="font-weight:bold;vertical-align:top;">wsgi_version</td><td style="vertical-align:top;">:</td><td><div><table><tr><td><div>1</div></td></tr><tr><td><div>0</div></td></tr></table></div></td></tr></table></div></td></tr><tr><td style="font-weight:bold;vertical-align:top;">extension</td><td style="vertical-align:top;">:</td><td><div>html</div></td></tr><tr><td style="font-weight:bold;vertical-align:top;">folder</td><td style="vertical-align:top;">:</td><td><div>C:\\Users\\Jordan\\Desktop\\CompSci\\web2py\\applications\\socialapp\\</div></td></tr><tr><td style="font-weight:bold;vertical-align:top;">function</td><td style="vertical-align:top;">:</td><td><div>profile</div></td></tr><tr><td style="font-weight:bold;vertical-align:top;">global_settings</td><td style="vertical-align:top;">:</td><td><div><table><tr><td style="font-weight:bold;vertical-align:top;">app_folders</td><td style="vertical-align:top;">:</td><td><div>set([&#x27;C:\\\\Users\\\\Jordan\\\\Desktop\\\\CompSci\\\\web2py\\\\applications\\\\socialapp\\\\&#x27;, &#x27;C:\\\\Users\\\\Jordan\\\\Desktop\\\\CompSci\\\\web2py\\\\applications\\\\examples\\\\&#x27;, &#x27;C:\\\\Users\\\\Jordan\\\\Desktop\\\\CompSci\\\\web2py\\\\applications\\\\admin\\\\&#x27;, &#x27;C:\\\\Users\\\\Jordan\\\\Desktop\\\\CompSci\\\\web2py\\\\applications\\\\welcome\\\\&#x27;])</div></td></tr><tr><td style="font-weight:bold;vertical-align:top;">applications_parent</td><td style="vertical-align:top;">:</td><td><div>C:\\Users\\Jordan\\Desktop\\CompSci\\web2py</div></td></tr><tr><td style="font-weight:bold;vertical-align:top;">cmd_args</td><td style="vertical-align:top;">:</td><td><div><table></table></div></td></tr><tr><td style="font-weight:bold;vertical-align:top;">cmd_options</td><td style="vertical-align:top;">:</td><td><div>&lt;Values at 0x33b2300: {&#x27;verbose&#x27;: False, &#x27;ip&#x27;: &#x27;127.0.0.1&#x27;, &#x27;debuglevel&#x27;: 30, &#x27;with_scheduler&#x27;: False, &#x27;ips&#x27;: [&#x27;169.233.221.241&#x27;, &#x27;fe80::9d95:d390:5d8d:b072%23&#x27;, &#x27;fe80::e4ca:8b18:1198:1e7b%11&#x27;, &#x27;2002:a9e9:ddf1::a9e9:ddf1&#x27;, &#x27;fe80::200:5efe:169.233.221.241%26&#x27;, &#x27;192.168.56.1&#x27;], &#x27;shutdown_timeout&#x27;: 5, &#x27;taskbar&#x27;: False, &#x27;with_coverage&#x27;: False, &#x27;scheduler_groups&#x27;: None, &#x27;port&#x27;: 8000, &#x27;maxthreads&#x27;: None, &#x27;softcron&#x27;: False, &#x27;server_name&#x27;: &#x27;Jordan-PC&#x27;, &#x27;bpython&#x27;: False, &#x27;nogui&#x27;: False, &#x27;pid_filename&#x27;: &#x27;httpserver.pid&#x27;, &#x27;extcron&#x27;: False, &#x27;runcron&#x27;: False, &#x27;run_system_tests&#x27;: False, &#x27;test&#x27;: None, &#x27;folder&#x27;: &#x27;C:\\\\Users\\\\Jordan\\\\Desktop\\\\CompSci\\\\web2py&#x27;, &#x27;config&#x27;: &#x27;&#x27;, &#x27;minthreads&#x27;: None, &#x27;shell&#x27;: None, &#x27;run&#x27;: &#x27;&#x27;, &#x27;log_filename&#x27;: &#x27;httpserver.log&#x27;, &#x27;profiler_dir&#x27;: None, &#x27;args&#x27;: [&#x27;&#x27;], &#x27;socket_timeout&#x27;: 5, &#x27;ssl_ca_certificate&#x27;: None, &#x27;scheduler&#x27;: None, &#x27;interfaces&#x27;: None, &#x27;ssl_private_key&#x27;: &#x27;&#x27;, &#x27;gae&#x27;: None, &#x27;password&#x27;: &#x27;&lt;ask&gt;&#x27;, &#x27;request_queue_size&#x27;: 5, &#x27;ssl_certificate&#x27;: &#x27;&#x27;, &#x27;cronjob&#x27;: False, &#x27;numthreads&#x27;: None, &#x27;quiet&#x27;: False, &#x27;import_models&#x27;: False, &#x27;timeout&#x27;: 10, &#x27;plain&#x27;: False, &#x27;nobanner&#x27;: False}&gt;</div></td></tr><tr><td style="font-weight:bold;vertical-align:top;">db_sessions</td><td style="vertical-align:top;">:</td><td><div>set([])</div></td></tr><tr><td style="font-weight:bold;vertical-align:top;">debugging</td><td style="vertical-align:top;">:</td><td><div>True</div></td></tr><tr><td style="font-weight:bold;vertical-align:top;">gluon_parent</td><td style="vertical-align:top;">:</td><td><div>C:\\Users\\Jordan\\Desktop\\CompSci\\web2py</div></td></tr><tr><td style="font-weight:bold;vertical-align:top;">is_jython</td><td style="vertical-align:top;">:</td><td><div>False</div></td></tr><tr><td style="font-weight:bold;vertical-align:top;">is_pypy</td><td style="vertical-align:top;">:</td><td><div>False</div></td></tr><tr><td style="font-weight:bold;vertical-align:top;">is_source</td><td style="vertical-align:top;">:</td><td><div>False</div></td></tr><tr><td style="font-weight:bold;vertical-align:top;">local_hosts</td><td style="vertical-align:top;">:</td><td><div><table><tr><td><div>169.233.221.241</div></td></tr><tr><td><div>fe80::9d95:d390:5d8d:b072%23</div></td></tr><tr><td><div>Jordan-PC</div></td></tr><tr><td><div>fe80::e4ca:8b18:1198:1e7b%11</div></td></tr><tr><td><div>::ffff:127.0.0.1</div></td></tr><tr><td><div>::1</div></td></tr><tr><td><div>2002:a9e9:ddf1::a9e9:ddf1</div></td></tr><tr><td><div>fe80::200:5efe:169.233.221.241%26</div></td></tr><tr><td><div>127.0.0.1</div></td></tr><tr><td><div>192.168.56.1</div></td></tr></table></div></td></tr><tr><td style="font-weight:bold;vertical-align:top;">web2py_version</td><td style="vertical-align:top;">:</td><td><div>2.9.11-stable+timestamp.2014.09.15.23.35.11</div></td></tr></table></div></td></tr><tr><td style="font-weight:bold;vertical-align:top;">is_https</td><td style="vertical-align:top;">:</td><td><div>False</div></td></tr><tr><td style="font-weight:bold;vertical-align:top;">is_local</td><td style="vertical-align:top;">:</td><td><div>True</div></td></tr><tr><td style="font-weight:bold;vertical-align:top;">is_restful</td><td style="vertical-align:top;">:</td><td><div>False</div></td></tr><tr><td style="font-weight:bold;vertical-align:top;">is_sheduler</td><td style="vertical-align:top;">:</td><td><div>None</div></td></tr><tr><td style="font-weight:bold;vertical-align:top;">is_shell</td><td style="vertical-align:top;">:</td><td><div>None</div></td></tr><tr><td style="font-weight:bold;vertical-align:top;">now</td><td style="vertical-align:top;">:</td><td><div>datetime.datetime(2014, 11, 15, 14, 19, 57, 543000)</div></td></tr><tr><td style="font-weight:bold;vertical-align:top;">raw_args</td><td style="vertical-align:top;">:</td><td><div></div></td></tr><tr><td style="font-weight:bold;vertical-align:top;">raw_extension</td><td style="vertical-align:top;">:</td><td><div>None</div></td></tr><tr><td style="font-weight:bold;vertical-align:top;">url</td><td style="vertical-align:top;">:</td><td><div>/socialapp/default/profile</div></td></tr><tr><td style="font-weight:bold;vertical-align:top;">utcnow</td><td style="vertical-align:top;">:</td><td><div>datetime.datetime(2014, 11, 15, 22, 19, 57, 543000)</div></td></tr><tr><td style="font-weight:bold;vertical-align:top;">uuid</td><td style="vertical-align:top;">:</td><td><div>socialapp/127.0.0.1.2014-11-15.14-19-57.fc06aa5a-0b1a-4c58-9a3f-02aa18d31404</div></td></tr><tr><td style="font-weight:bold;vertical-align:top;">wsgi</td><td style="vertical-align:top;">:</td><td><div>&lt;gluon.main.LazyWSGI object at 0x08192AB0&gt;</div></td></tr></table></div>'
tRp58
sS'frames'
p59
(lp60
(dp61
S'file'
p62
S'C:\\Users\\Jordan\\Desktop\\CompSci\\web2py\\gluon\\restricted.py'
p63
sS'dump'
p64
(dp65
sS'lnum'
p66
I224
sS'lines'
p67
(dp68
sS'call'
p69
S'(code=r"response.write(\'<!--[if HTML5]><![endif]-->\\r\\n<...script>\\r\\n</body>\\r\\n</html>\\r\\n\', escape=False)", environment={\'A\': <class \'gluon.html.A\'>, \'ANY_OF\': <class \'gluon.validators.ANY_OF\'>, \'ASSIGNJS\': <function ASSIGNJS>, \'Auth\': <class \'gluon.tools.Auth\'>, \'B\': <class \'gluon.html.B\'>, \'BEAUTIFY\': <class \'gluon.html.BEAUTIFY\'>, \'BODY\': <class \'gluon.html.BODY\'>, \'BR\': <class \'gluon.html.BR\'>, \'BUTTON\': <class \'gluon.html.BUTTON\'>, \'CAT\': <class \'gluon.html.CAT\'>, ...}, layer=r\'C:\\Users\\Jordan\\Desktop\\CompSci\\web2py\\applications\\socialapp\\views\\default/profile.html\')'
p70
sS'func'
p71
S'restricted'
p72
sa(dp73
g62
S'C:\\Users\\Jordan\\Desktop\\CompSci\\web2py\\applications\\socialapp\\views\\default\\profile.html'
p74
sg64
(dp75
sg66
I93
sg67
(dp76
I96
S"    response.write('</b>\\r\\n    </div>\\r\\n    ', escape=False)"
p77
sI97
S'    pass'
p78
sI98
S'response.write("\\r\\n</table>\\r\\n\\r\\n<! Button shouldn\'t be visible if it\'s a different user>\\r\\n", escape=False)'
p79
sI99
S'response.write(A(\'Publish new status\', _href=URL(\'new\'), _class="btn btn-primary", _type="button"))'
p80
sI100
S"response.write('\\r\\n\\r\\n<table>\\r\\n    ', escape=False)"
p81
sI101
S'for status in statuses:'
p82
sI102
S'    response.write(\'\\r\\n    <div class="status well">\\r\\n        <b>\', escape=False)'
p83
sI103
S'    response.write(status.created_by.first_name + " " + status.created_by.last_name)'
p84
sI84
S'    response.write(\'\\r\\n        <div class="span3 left-sidebar">\\r\\n            \', escape=False)'
p85
sI85
S"    response.write('\\r\\n            <h3>Left Sidebar</h3>\\r\\n            <p></p>\\r\\n            ', escape=False)"
p86
sI86
S"    response.write('\\r\\n        </div>\\r\\n        ', escape=False)"
p87
sI87
S'    pass'
p88
sI88
S'response.write(\'\\r\\n\\r\\n        <div class="\', escape=False)'
p89
sI89
S'response.write(middle_columns)'
p90
sI90
S'response.write(\'">\\r\\n            \', escape=False)'
p91
sI91
S"response.write('\\r\\n            ', escape=False)"
p92
sI92
S'response.write(\'\\r\\n<style>\\r\\n    .editables{\\r\\n        display:none;\\r\\n    }\\r\\n    .status.hover .editables{\\r\\n        display:inline;\\r\\n    }\\r\\n</style>\\r\\n<script type="javascript">\\r\\n    $(\\\'.status\\\').hover(function(){\\r\\n        console.log("hi there");\\r\\n    });\\r\\n</script>\\r\\n<! Name should change depending on who the user is >\\r\\n<h1>Username\\\'s/Your Profile Page </h1>\\r\\n\\r\\n<table>\\r\\n    <h2>Friends</h2>\\r\\n    \', escape=False)'
p93
sI93
S'for friend in friends:'
p94
sI94
S'    response.write(\'\\r\\n    <div class="friend well">\\r\\n        <b>\', escape=False)'
p95
sI95
S'    response.write(friend.first_name + " " + friend.last_name)'
p96
ssg69
S'()'
p97
sg71
S'<module>'
p98
sasS'pyver'
p99
S'Python 2.7.6: C:\\Users\\Jordan\\Desktop\\CompSci\\web2py\\web2py.exe (prefix: )'
p100
sS'session'
p101
g57
(S'sM\x0b\x00\x00<div><table><tr><td style="font-weight:bold;vertical-align:top;">auth</td><td style="vertical-align:top;">:</td><td><div><table><tr><td style="font-weight:bold;vertical-align:top;">expiration</td><td style="vertical-align:top;">:</td><td><div>3600</div></td></tr><tr><td style="font-weight:bold;vertical-align:top;">hmac_key</td><td style="vertical-align:top;">:</td><td><div>dc1f0bc5-745a-429c-beda-8d82a59d0d6d</div></td></tr><tr><td style="font-weight:bold;vertical-align:top;">last_visit</td><td style="vertical-align:top;">:</td><td><div>datetime.datetime(2014, 11, 15, 14, 19, 57, 543000)</div></td></tr><tr><td style="font-weight:bold;vertical-align:top;">user</td><td style="vertical-align:top;">:</td><td><div><table><tr><td style="font-weight:bold;vertical-align:top;">created_by</td><td style="vertical-align:top;">:</td><td><div>None</div></td></tr><tr><td style="font-weight:bold;vertical-align:top;">created_on</td><td style="vertical-align:top;">:</td><td><div>datetime.datetime(2014, 11, 15, 13, 27, 47)</div></td></tr><tr><td style="font-weight:bold;vertical-align:top;">email</td><td style="vertical-align:top;">:</td><td><div>yoyo@gmail.com</div></td></tr><tr><td style="font-weight:bold;vertical-align:top;">first_name</td><td style="vertical-align:top;">:</td><td><div>Jay</div></td></tr><tr><td style="font-weight:bold;vertical-align:top;">id</td><td style="vertical-align:top;">:</td><td><div>4L</div></td></tr><tr><td style="font-weight:bold;vertical-align:top;">is_active</td><td style="vertical-align:top;">:</td><td><div>True</div></td></tr><tr><td style="font-weight:bold;vertical-align:top;">last_name</td><td style="vertical-align:top;">:</td><td><div>Hyman</div></td></tr><tr><td style="font-weight:bold;vertical-align:top;">modified_by</td><td style="vertical-align:top;">:</td><td><div>None</div></td></tr><tr><td style="font-weight:bold;vertical-align:top;">modified_on</td><td style="vertical-align:top;">:</td><td><div>datetime.datetime(2014, 11, 15, 13, 27, 47)</div></td></tr><tr><td style="font-weight:bold;vertical-align:top;">registration_id</td><td style="vertical-align:top;">:</td><td><div></div></td></tr><tr><td style="font-weight:bold;vertical-align:top;">registration_key</td><td style="vertical-align:top;">:</td><td><div></div></td></tr><tr><td style="font-weight:bold;vertical-align:top;">reset_password_key</td><td style="vertical-align:top;">:</td><td><div></div></td></tr></table></div></td></tr><tr><td style="font-weight:bold;vertical-align:top;">user_groups</td><td style="vertical-align:top;">:</td><td><div><table><tr><td style="font-weight:bold;vertical-align:top;">2</td><td style="vertical-align:top;">:</td><td><div>user_4</div></td></tr></table></div></td></tr></table></div></td></tr><tr><td style="font-weight:bold;vertical-align:top;">flash</td><td style="vertical-align:top;">:</td><td><div>None</div></td></tr></table></div>'
tRp102
sS'etype'
p103
S"<type 'exceptions.NameError'>"
p104
sS'date'
p105
S'Sat Nov 15 14:19:57 2014'
p106
sS'response'
p107
g57
(S's\x9b\x1d\x00\x00<div><table><tr><td style="font-weight:bold;vertical-align:top;">body</td><td style="vertical-align:top;">:</td><td><div>&lt;cStringIO.StringO object at 0x074302C0&gt;</div></td></tr><tr><td style="font-weight:bold;vertical-align:top;">cookies</td><td style="vertical-align:top;">:</td><td><div><table><tr><td style="font-weight:bold;vertical-align:top;">session_id_socialapp</td><td style="vertical-align:top;">:</td><td><div>127.0.0.1-1b537698-8cca-44df-92d1-47392b69d9cd<table><tr><td style="font-weight:bold;vertical-align:top;">comment</td><td style="vertical-align:top;">:</td><td><div></div></td></tr><tr><td style="font-weight:bold;vertical-align:top;">domain</td><td style="vertical-align:top;">:</td><td><div></div></td></tr><tr><td style="font-weight:bold;vertical-align:top;">expires</td><td style="vertical-align:top;">:</td><td><div></div></td></tr><tr><td style="font-weight:bold;vertical-align:top;">httponly</td><td style="vertical-align:top;">:</td><td><div></div></td></tr><tr><td style="font-weight:bold;vertical-align:top;">max-age</td><td style="vertical-align:top;">:</td><td><div></div></td></tr><tr><td style="font-weight:bold;vertical-align:top;">path</td><td style="vertical-align:top;">:</td><td><div>/</div></td></tr><tr><td style="font-weight:bold;vertical-align:top;">secure</td><td style="vertical-align:top;">:</td><td><div></div></td></tr><tr><td style="font-weight:bold;vertical-align:top;">version</td><td style="vertical-align:top;">:</td><td><div></div></td></tr></table></div></td></tr></table></div></td></tr><tr><td style="font-weight:bold;vertical-align:top;">delimiters</td><td style="vertical-align:top;">:</td><td><div><table><tr><td><div>{{</div></td></tr><tr><td><div>}}</div></td></tr></table></div></td></tr><tr><td style="font-weight:bold;vertical-align:top;">files</td><td style="vertical-align:top;">:</td><td><div><table><tr><td><div>/socialapp/static/js/jquery.js</div></td></tr><tr><td><div>/socialapp/static/css/calendar.css</div></td></tr><tr><td><div>/socialapp/static/js/calendar.js</div></td></tr><tr><td><div>/socialapp/static/js/web2py.js</div></td></tr><tr><td><div>/socialapp/static/css/web2py.css</div></td></tr><tr><td><div>/socialapp/static/css/bootstrap.min.css</div></td></tr><tr><td><div>/socialapp/static/css/bootstrap-responsive.min.css</div></td></tr><tr><td><div>/socialapp/static/css/web2py_bootstrap.css</div></td></tr></table></div></td></tr><tr><td style="font-weight:bold;vertical-align:top;">flash</td><td style="vertical-align:top;">:</td><td><div></div></td></tr><tr><td style="font-weight:bold;vertical-align:top;">form_label_separator</td><td style="vertical-align:top;">:</td><td><div>: </div></td></tr><tr><td style="font-weight:bold;vertical-align:top;">formstyle</td><td style="vertical-align:top;">:</td><td><div>table3cols</div></td></tr><tr><td style="font-weight:bold;vertical-align:top;">generic_patterns</td><td style="vertical-align:top;">:</td><td><div><table><tr><td><div>*</div></td></tr></table></div></td></tr><tr><td style="font-weight:bold;vertical-align:top;">headers</td><td style="vertical-align:top;">:</td><td><div><table><tr><td style="font-weight:bold;vertical-align:top;">X-Powered-By</td><td style="vertical-align:top;">:</td><td><div>web2py</div></td></tr></table></div></td></tr><tr><td style="font-weight:bold;vertical-align:top;">logo</td><td style="vertical-align:top;">:</td><td><div><a class="brand" href="#"><b>Social App</b></a></div></td></tr><tr><td style="font-weight:bold;vertical-align:top;">menu</td><td style="vertical-align:top;">:</td><td><div><table></table></div></td></tr><tr><td style="font-weight:bold;vertical-align:top;">meta</td><td style="vertical-align:top;">:</td><td><div><table><tr><td style="font-weight:bold;vertical-align:top;">author</td><td style="vertical-align:top;">:</td><td><div>Kevin Stewart</div></td></tr><tr><td style="font-weight:bold;vertical-align:top;">description</td><td style="vertical-align:top;">:</td><td><div>A social network demonstration/project</div></td></tr><tr><td style="font-weight:bold;vertical-align:top;">keywords</td><td style="vertical-align:top;">:</td><td><div></div></td></tr></table></div></td></tr><tr><td style="font-weight:bold;vertical-align:top;">models_to_run</td><td style="vertical-align:top;">:</td><td><div><table><tr><td><div>^\\w+\\.py$</div></td></tr><tr><td><div>^default/\\w+\\.py$</div></td></tr><tr><td><div>^default/profile/\\w+\\.py$</div></td></tr></table></div></td></tr><tr><td style="font-weight:bold;vertical-align:top;">postprocessing</td><td style="vertical-align:top;">:</td><td><div><table></table></div></td></tr><tr><td style="font-weight:bold;vertical-align:top;">session_client</td><td style="vertical-align:top;">:</td><td><div>127.0.0.1</div></td></tr><tr><td style="font-weight:bold;vertical-align:top;">session_cookie_compression_level</td><td style="vertical-align:top;">:</td><td><div>None</div></td></tr><tr><td style="font-weight:bold;vertical-align:top;">session_cookie_expires</td><td style="vertical-align:top;">:</td><td><div>None</div></td></tr><tr><td style="font-weight:bold;vertical-align:top;">session_cookie_key</td><td style="vertical-align:top;">:</td><td><div>None</div></td></tr><tr><td style="font-weight:bold;vertical-align:top;">session_data_name</td><td style="vertical-align:top;">:</td><td><div>session_data_socialapp</div></td></tr><tr><td style="font-weight:bold;vertical-align:top;">session_file</td><td style="vertical-align:top;">:</td><td><div>&lt;open file &#x27;C:\\\\Users\\\\Jordan\\\\Desktop\\\\CompSci\\\\web2py\\\\applications\\\\socialapp\\\\sessions\\\\1e6\\\\1c1\\\\127.0.0.1-1b537698-8cca-44df-92d1-47392b69d9cd&#x27;, mode &#x27;rb+&#x27; at 0x07CEB8B8&gt;</div></td></tr><tr><td style="font-weight:bold;vertical-align:top;">session_filename</td><td style="vertical-align:top;">:</td><td><div>C:\\Users\\Jordan\\Desktop\\CompSci\\web2py\\applications\\socialapp\\sessions\\127.0.0.1-1b537698-8cca-44df-92d1-47392b69d9cd</div></td></tr><tr><td style="font-weight:bold;vertical-align:top;">session_hash</td><td style="vertical-align:top;">:</td><td><div>9866cfda063cdb37316d31768f328092</div></td></tr><tr><td style="font-weight:bold;vertical-align:top;">session_id</td><td style="vertical-align:top;">:</td><td><div>127.0.0.1-1b537698-8cca-44df-92d1-47392b69d9cd</div></td></tr><tr><td style="font-weight:bold;vertical-align:top;">session_id_name</td><td style="vertical-align:top;">:</td><td><div>session_id_socialapp</div></td></tr><tr><td style="font-weight:bold;vertical-align:top;">session_locked</td><td style="vertical-align:top;">:</td><td><div>True</div></td></tr><tr><td style="font-weight:bold;vertical-align:top;">session_masterapp</td><td style="vertical-align:top;">:</td><td><div>socialapp</div></td></tr><tr><td style="font-weight:bold;vertical-align:top;">session_new</td><td style="vertical-align:top;">:</td><td><div>False</div></td></tr><tr><td style="font-weight:bold;vertical-align:top;">session_storage_type</td><td style="vertical-align:top;">:</td><td><div>file</div></td></tr><tr><td style="font-weight:bold;vertical-align:top;">status</td><td style="vertical-align:top;">:</td><td><div>200</div></td></tr><tr><td style="font-weight:bold;vertical-align:top;">subtitle</td><td style="vertical-align:top;">:</td><td><div></div></td></tr><tr><td style="font-weight:bold;vertical-align:top;">title</td><td style="vertical-align:top;">:</td><td><div>socialapp</div></td></tr><tr><td style="font-weight:bold;vertical-align:top;">view</td><td style="vertical-align:top;">:</td><td><div>default/profile.html</div></td></tr></table></div>'
tRp108
sS'locals'
p109
(dp110
S'Service'
p111
S"<class 'gluon.tools.Service'>"
p112
sS'OBJECT'
p113
S"<class 'gluon.html.OBJECT'>"
p114
sS'SQLDB'
p115
S"<class 'gluon.dal.DAL'>"
p116
sg101
S"<Storage {'_formkey[register]': ['b7423bd3-d17f-...ce694', 'e35acf4e-5db9-49e9-ba6c-f5c172ae3fe5']}>"
p117
sS'LINK'
p118
S"<class 'gluon.html.LINK'>"
p119
sS'BR'
p120
S"<class 'gluon.html.BR'>"
p121
sS'local_import'
p122
S'<function <lambda>>'
p123
sS'OPTGROUP'
p124
S"<class 'gluon.html.OPTGROUP'>"
p125
sS'__package__'
p126
S'None'
p127
sS'PRE'
p128
S"<class 'gluon.html.PRE'>"
p129
sS'IS_INT_IN_RANGE'
p130
S"<class 'gluon.validators.IS_INT_IN_RANGE'>"
p131
sS'left_sidebar_enabled'
p132
S'False'
p133
sS'IS_LOWER'
p134
S"<class 'gluon.validators.IS_LOWER'>"
p135
sS'IS_STRONG'
p136
S"<class 'gluon.validators.IS_STRONG'>"
p137
sS'Recaptcha'
p138
S"<class 'gluon.tools.Recaptcha'>"
p139
sS'cache'
p140
S'<gluon.cache.Cache object>'
p141
sS'IS_IN_DB'
p142
S"<class 'gluon.validators.IS_IN_DB'>"
p143
sS'TAG'
p144
S'<gluon.html.__TAG__ object>'
p145
sS'SQLField'
p146
S"<class 'gluon.dal.Field'>"
p147
sS'BODY'
p148
S"<class 'gluon.html.BODY'>"
p149
sS'IS_DATE_IN_RANGE'
p150
S"<class 'gluon.validators.IS_DATE_IN_RANGE'>"
p151
sS'IFRAME'
p152
S"<class 'gluon.html.IFRAME'>"
p153
sS'URL'
p154
S'<function URL>'
p155
sS'__file__'
p156
S"r'C:\\Users\\Jordan\\Desktop\\CompSci\\web2py\\applications\\socialapp\\views\\default/profile.html'"
p157
sS'db'
p158
S'<DAL uri="sqlite://storage.sqlite">'
p159
sS'auth'
p160
S'<gluon.tools.Auth object>'
p161
sS'P'
S"<class 'gluon.html.P'>"
p162
sS'TFOOT'
p163
S"<class 'gluon.html.TFOOT'>"
p164
sS'XHTML'
p165
S"<class 'gluon.html.XHTML'>"
p166
sS'datetime'
p167
S"<type 'datetime.datetime'>"
p168
sS'ON'
p169
S'True'
p170
sS'OL'
p171
S"<class 'gluon.html.OL'>"
p172
sS'TEXTAREA'
p173
S"<class 'gluon.html.TEXTAREA'>"
p174
sS'MENU'
p175
S"<class 'gluon.html.MENU'>"
p176
sS'IS_IMAGE'
p177
S"<class 'gluon.validators.IS_IMAGE'>"
p178
sS'reverse_geocode'
p179
S'<function reverse_geocode>'
p180
sS'EM'
p181
S"<class 'gluon.html.EM'>"
p182
sS'CODE'
p183
S"<class 'gluon.html.CODE'>"
p184
sS'HTTP'
p185
S"<class 'gluon.http.HTTP'>"
p186
sS'HR'
p187
S"<class 'gluon.html.HR'>"
p188
sS'IS_DATETIME'
p189
S"<class 'gluon.validators.IS_DATETIME'>"
p190
sS'STYLE'
p191
S"<class 'gluon.html.STYLE'>"
p192
sS'LABEL'
p193
S"<class 'gluon.html.LABEL'>"
p194
sS'CLEANUP'
p195
S"<class 'gluon.validators.CLEANUP'>"
p196
sS'SELECT'
p197
S"<class 'gluon.html.SELECT'>"
p198
sS'CENTER'
p199
S"<class 'gluon.html.CENTER'>"
p200
sS'prettydate'
p201
S'<function prettydate>'
p202
sS'Crud'
p203
S"<class 'gluon.tools.Crud'>"
p204
sS'Auth'
p205
S"<class 'gluon.tools.Auth'>"
p206
sS'__builtins__'
p207
S"{'ArithmeticError': <type 'exceptions.ArithmeticError'>, 'AssertionError': <type 'exceptions.AssertionError'>, 'AttributeError': <type 'exceptions.AttributeError'>, 'BaseException': <type 'exceptions.BaseException'>, 'BufferError': <type 'exceptions.BufferError'>, 'BytesWarning': <type 'exceptions.BytesWarning'>, 'DeprecationWarning': <type 'exceptions.DeprecationWarning'>, 'EOFError': <type 'exceptions.EOFError'>, 'Ellipsis': Ellipsis, 'EnvironmentError': <type 'exceptions.EnvironmentError'>, ...}"
p208
sS'HTML'
p209
S"<class 'gluon.html.HTML'>"
p210
sS'SQLFORM'
p211
S"<class 'gluon.sqlhtml.SQLFORM'>"
p212
sS'LOAD'
p213
S'<function LOAD>'
p214
sS'redirect'
p215
S'<function redirect>'
p216
sS'FIELDSET'
p217
S"<class 'gluon.html.FIELDSET'>"
p218
sS'IS_EQUAL_TO'
p219
S"<class 'gluon.validators.IS_EQUAL_TO'>"
p220
sS'embed64'
p221
S'<function embed64>'
p222
sS'IS_LIST_OF'
p223
S"<class 'gluon.validators.IS_LIST_OF'>"
p224
sS'INPUT'
p225
S"<class 'gluon.html.INPUT'>"
p226
sS'EMBED'
p227
S"<class 'gluon.html.EMBED'>"
p228
sS'H2'
p229
S"<class 'gluon.html.H2'>"
p230
sS'H3'
p231
S"<class 'gluon.html.H3'>"
p232
sS'BUTTON'
p233
S"<class 'gluon.html.BUTTON'>"
p234
sS'H1'
p235
S"<class 'gluon.html.H1'>"
p236
sS'H6'
p237
S"<class 'gluon.html.H6'>"
p238
sS'H4'
p239
S"<class 'gluon.html.H4'>"
p240
sS'H5'
p241
S"<class 'gluon.html.H5'>"
p242
sS'UL'
p243
S"<class 'gluon.html.UL'>"
p244
sS'IS_UPPER'
p245
S"<class 'gluon.validators.IS_UPPER'>"
p246
sS'xmlescape'
p247
S'<function xmlescape>'
p248
sS'IS_TIME'
p249
S"<class 'gluon.validators.IS_TIME'>"
p250
sS'OPTION'
p251
S"<class 'gluon.html.OPTION'>"
p252
sS'TITLE'
p253
S"<class 'gluon.html.TITLE'>"
p254
sS'CRYPT'
p255
S"<class 'gluon.validators.CRYPT'>"
p256
sS'IS_EMPTY_OR'
p257
S"<class 'gluon.validators.IS_EMPTY_OR'>"
p258
sS'MARKMIN'
p259
S"<class 'gluon.html.MARKMIN'>"
p260
sS'__name__'
p261
S"'__restricted__'"
p262
sS'STRONG'
p263
S"<class 'gluon.html.STRONG'>"
p264
sS'COL'
p265
S"<class 'gluon.html.COL'>"
p266
sS'SCRIPT'
p267
S"<class 'gluon.html.SCRIPT'>"
p268
sS'geocode'
p269
S'<function geocode>'
p270
sS'is_mobile'
p271
g133
sS'TABLE'
p272
S"<class 'gluon.html.TABLE'>"
p273
sS'IS_IPV4'
p274
S"<class 'gluon.validators.IS_IPV4'>"
p275
sS'IS_LENGTH'
p276
S"<class 'gluon.validators.IS_LENGTH'>"
p277
sS'IS_IPV6'
p278
S"<class 'gluon.validators.IS_IPV6'>"
p279
sS'XML'
p280
S"<class 'gluon.html.XML'>"
p281
sS'Wiki'
p282
S"<class 'gluon.tools.Wiki'>"
p283
sS'B'
S"<class 'gluon.html.B'>"
p284
sS'IMG'
p285
S"<class 'gluon.html.IMG'>"
p286
sS'SQLTABLE'
p287
S"<class 'gluon.sqlhtml.SQLTABLE'>"
p288
sS'IS_MATCH'
p289
S"<class 'gluon.validators.IS_MATCH'>"
p290
sS'IS_ALPHANUMERIC'
p291
S"<class 'gluon.validators.IS_ALPHANUMERIC'>"
p292
sS'SPAN'
p293
S"<class 'gluon.html.SPAN'>"
p294
sS'IS_JSON'
p295
S"<class 'gluon.validators.IS_JSON'>"
p296
sS'IS_IPADDRESS'
p297
S"<class 'gluon.validators.IS_IPADDRESS'>"
p298
sS'IS_SLUG'
p299
S"<class 'gluon.validators.IS_SLUG'>"
p300
sS'BEAUTIFY'
p301
S"<class 'gluon.html.BEAUTIFY'>"
p302
sS'META'
p303
S"<class 'gluon.html.META'>"
p304
sS'fetch'
p305
S'<function fetch>'
p306
sS'IS_DATE'
p307
S"<class 'gluon.validators.IS_DATE'>"
p308
sS'IS_EMAIL'
p309
S"<class 'gluon.validators.IS_EMAIL'>"
p310
sS'IS_NOT_EMPTY'
p311
S"<class 'gluon.validators.IS_NOT_EMPTY'>"
p312
sS'IS_FLOAT_IN_RANGE'
p313
S"<class 'gluon.validators.IS_FLOAT_IN_RANGE'>"
p314
sS'TBODY'
p315
S"<class 'gluon.html.TBODY'>"
p316
sS'CAT'
p317
S"<class 'gluon.html.CAT'>"
p318
sS'Field'
p319
S"<class 'gluon.dal.Field'>"
p320
sS'IS_LIST_OF_EMAILS'
p321
S"<class 'gluon.validators.IS_LIST_OF_EMAILS'>"
p322
sS'Mail'
p323
S"<class 'gluon.tools.Mail'>"
p324
sS'middle_columns'
p325
S"'span12'"
p326
sS'DIV'
p327
S"<class 'gluon.html.DIV'>"
p328
sS'LEGEND'
p329
S"<class 'gluon.html.LEGEND'>"
p330
sS'statuses'
p331
S'<Rows (5)>'
p332
sS'COLGROUP'
p333
S"<class 'gluon.html.COLGROUP'>"
p334
sS'DAL'
p335
S"<class 'gluon.dal.DAL'>"
p336
sS'ASSIGNJS'
p337
S'<function ASSIGNJS>'
p338
sS'TR'
p339
S"<class 'gluon.html.TR'>"
p340
sS'LI'
p341
S"<class 'gluon.html.LI'>"
p342
sS'right_sidebar_enabled'
p343
g133
sS'TH'
p344
S"<class 'gluon.html.TH'>"
p345
sS'TD'
p346
S"<class 'gluon.html.TD'>"
p347
sS'PluginManager'
p348
S"<class 'gluon.tools.PluginManager'>"
p349
sS'IS_URL'
p350
S"<class 'gluon.validators.IS_URL'>"
p351
sS'A'
S"<class 'gluon.html.A'>"
p352
sS'HEAD'
p353
S"<class 'gluon.html.HEAD'>"
p354
sS'IS_DATETIME_IN_RANGE'
p355
S"<class 'gluon.validators.IS_DATETIME_IN_RANGE'>"
p356
sS'FORM'
p357
S"<class 'gluon.html.FORM'>"
p358
sS'I'
S"<class 'gluon.html.I'>"
p359
sS'crud'
p360
S'<gluon.tools.Crud object>'
p361
sS'IS_NOT_IN_DB'
p362
S"<class 'gluon.validators.IS_NOT_IN_DB'>"
p363
sg107
S"<Storage {'body': <cStringIO.StringO object at 0... at 0x08056B70>, 'view': 'default/profile.html'}>"
p364
sS'THEAD'
p365
S"<class 'gluon.html.THEAD'>"
p366
sS'ANY_OF'
p367
S"<class 'gluon.validators.ANY_OF'>"
p368
sS'IS_NULL_OR'
p369
S"<class 'gluon.validators.IS_EMPTY_OR'>"
p370
sg56
S"<Storage {'_vars': None, 'function': 'profile', ...op\\\\CompSci\\\\web2py\\\\applications\\\\socialapp\\\\'}>"
p371
sS'IS_EXPR'
p372
S"<class 'gluon.validators.IS_EXPR'>"
p373
sS'T'
S'<gluon.languages.translator object>'
p374
sS'IS_IN_SET'
p375
S"<class 'gluon.validators.IS_IN_SET'>"
p376
sS'IS_UPLOAD_FILENAME'
p377
S"<class 'gluon.validators.IS_UPLOAD_FILENAME'>"
p378
sS'TT'
p379
S"<class 'gluon.html.TT'>"
p380
sS'IS_DECIMAL_IN_RANGE'
p381
S"<class 'gluon.validators.IS_DECIMAL_IN_RANGE'>"
p382
sssS'traceback'
p383
S'Traceback (most recent call last):\n  File "gluon/restricted.py", line 224, in restricted\n  File "C:\\Users\\Jordan\\Desktop\\CompSci\\web2py\\applications\\socialapp\\views\\default/profile.html", line 93, in <module>\nNameError: name \'friends\' is not defined\n'
p384
s.