(dp1
S'output'
p2
S"<type 'exceptions.AttributeError'> 'Query' object has no attribute 'type'"
p3
sS'layer'
p4
S'/Users/kevrstew/Desktop/web2py/web2py.app/Contents/Resources/applications/socialapp/controllers/default.py'
p5
sS'code'
p6
S'import datetime\n\n@auth.requires_login()\ndef index():\n    db.status.created_by.default = db.auth_user\n    db.status.created_on.default = request.now\n    crud.settings.formstyle = \'table2cols\'\n    form = crud.create(db.status)\n    friends = [db.auth_user]+[row.target for row in db(db.friend_connection.user==db.auth_user).select(db.friend_connection.friends==True)]\n    statuses = db(status.created_by.belongs(friends)).select(orderby=~status.created_on,limitby=(0,100))\n    return locals()\n\n@auth.requires_login()\ndef new():\n    form = SQLFORM(db.status).process(next=URL(\'index\'))\n    return dict(form=form)\n\n@auth.requires_login()\ndef edit():\n     current_status = db.status(request.args(0,cast=int)) or redirect(URL(\'index\'))\n     form = SQLFORM(db.status, current_status).process(\n         next = URL(\'show\',args=request.args))\n     return dict(form=form)\n\n@auth.requires_login()\ndef show():\n    status = db.status(request.args(0, cast=int)) or redirect(URL(\'index\'))\n    return dict(status=status)\n\n@auth.requires_login()\ndef delete():\n    status = db.status(request.args(0, cast=int)) or redirect(URL(\'index\'))\n\n    form=FORM(INPUT(_value=\'Yes\', _type=\'submit\', _name="bsubmit"),\n              INPUT(_value=\'No\', _type=\'submit\', _name="bsubmit"))\n\n    if request.vars.bsubmit == \'Yes\':\n       db(db.status.id == status.id).delete()\n       redirect(URL(\'index\'))\n    elif request.vars.bsubmit == \'No\':\n       redirect(URL(\'index\'))\n\n    return dict(form=form, status=status)\n\ndef user():\n    return dict(form=auth())\n\nresponse._vars=response._caller(index)\n'
p7
sS'snapshot'
p8
(dp9
sS'traceback'
p10
S'Traceback (most recent call last):\n  File "/Users/kevrstew/Desktop/web2py/web2py.app/Contents/Resources/gluon/restricted.py", line 224, in restricted\n  File "/Users/kevrstew/Desktop/web2py/web2py.app/Contents/Resources/applications/socialapp/controllers/default.py", line 48, in <module>\n  File "/Users/kevrstew/Desktop/web2py/web2py.app/Contents/Resources/gluon/globals.py", line 392, in <lambda>\n  File "/Users/kevrstew/Desktop/web2py/web2py.app/Contents/Resources/gluon/tools.py", line 3439, in f\n  File "/Users/kevrstew/Desktop/web2py/web2py.app/Contents/Resources/applications/socialapp/controllers/default.py", line 9, in index\n  File "/Users/kevrstew/Desktop/web2py/web2py.app/Contents/Resources/gluon/dal.py", line 10749, in select\n  File "/Users/kevrstew/Desktop/web2py/web2py.app/Contents/Resources/gluon/dal.py", line 2472, in select\n  File "/Users/kevrstew/Desktop/web2py/web2py.app/Contents/Resources/gluon/dal.py", line 1868, in select\n  File "/Users/kevrstew/Desktop/web2py/web2py.app/Contents/Resources/gluon/dal.py", line 1709, in _select\n  File "/Users/kevrstew/Desktop/web2py/web2py.app/Contents/Resources/gluon/dal.py", line 1705, in geoexpand\nAttributeError: \'Query\' object has no attribute \'type\'\n'
p11
s.